(dp1
S'channel2Color'
p2
S'Green'
p3
sS'channelOfInterest'
p4
I2
sS'channel1Color'
p5
S'Red'
p6
sS'nChannels'
p7
I2
sS'channel3Color'
p8
S''
sS'saveMotionCorrectedTIFF'
p9
I01
sS'motionCorrect'
p10
I01
sS'filename'
p11
S'D:/data/Dario/2016.01.19/r.151117.3/DM9_RbV1_Contra002.tif'
p12
sS'autodetectROIs'
p13
I00
s.